target datalayout = "e-m:e-p270:32:32-p271:32:32-p272:64:64-i64:64-i128:128-f80:128-n8:16:32:64-S128"
target triple = "x86_64-pc-linux-gnu"

%"class.Gluco2::vec.0" = type { ptr, i32, i32 }
%"class.Gluco2::Solver" = type { ptr, i32, ptr, ptr, i32, i8, ptr, i64, %"class.Gluco2::vec", %"class.Gluco2::vec.0", i32, %"class.Gluco2::vec.1", %"class.Gluco2::vec.0", i32, i32, i32, double, double, double, double, i32, i32, i32, i32, i32, i32, double, double, double, double, i32, i32, i8, i8, double, ptr, i8, i64, i64, i64, i64, i64, i64, i64, i64, i64, i64, i64, i64, i64, i64, i64, i64, i64, i64, i64, i64, i64, i64, i32, i8, double, %"class.Gluco2::vec.2", double, %"class.Gluco2::OccLists", %"class.Gluco2::OccLists", %"class.Gluco2::vec.5", %"class.Gluco2::vec.5", %"class.Gluco2::vec.1", %"class.Gluco2::vec.4", %"class.Gluco2::vec.4", %"class.Gluco2::vec.0", %"class.Gluco2::vec", %"class.Gluco2::vec", %"class.Gluco2::vec.6", i32, i32, i64, %"class.Gluco2::vec.0", %"class.Gluco2::Heap", double, i8, %"class.Gluco2::vec.5", %"class.Gluco2::vec.0", %"class.Gluco2::ClauseAllocator", i32, %"class.Gluco2::bqueue", %"class.Gluco2::bqueue", float, i32, %"class.Gluco2::vec.4", %"class.Gluco2::vec.0", %"class.Gluco2::vec.0", %"class.Gluco2::vec.0", i32, double, double, i32, i64, i64, i8, i32, i32, double, double, i32, i32, %"class.Gluco2::vec", %"class.Gluco2::vec", i8, %"class.Gluco2::vec.7", %"class.Gluco2::vec.5", %"class.Gluco2::vec.0", %"class.Gluco2::vec.0", i32, i32, i32, i32, %"class.Gluco2::Heap2", %"class.Gluco2::vec", %"class.Gluco2::vec", i32, %"class.Gluco2::vec", %"class.Gluco2::vec.0" }
%"class.Gluco2::vec.2" = type { ptr, i32, i32 }
%"class.Gluco2::OccLists" = type { %"class.Gluco2::vec.3", %"class.Gluco2::vec.4", %"class.Gluco2::vec.0", %"struct.Gluco2::Solver::WatcherDeleted" }
%"class.Gluco2::vec.3" = type { ptr, i32, i32 }
%"struct.Gluco2::Solver::WatcherDeleted" = type { ptr }
%"class.Gluco2::vec.1" = type { ptr, i32, i32 }
%"class.Gluco2::vec.6" = type { ptr, i32, i32 }
%"class.Gluco2::Heap" = type { %"struct.Gluco2::Solver::VarOrderLt", %"class.Gluco2::vec", %"class.Gluco2::vec" }
%"struct.Gluco2::Solver::VarOrderLt" = type { ptr }
%"class.Gluco2::ClauseAllocator" = type { %"class.Gluco2::RegionAllocator.base", i8, [3 x i8] }
%"class.Gluco2::RegionAllocator.base" = type <{ ptr, i32, i32, i32 }>
%"class.Gluco2::bqueue" = type { %"class.Gluco2::vec.5", i32, i32, i64, i32, i32, i8, double, double }
%"class.Gluco2::vec.4" = type { ptr, i32, i32 }
%"class.Gluco2::vec.7" = type { ptr, i32, i32 }
%"class.Gluco2::vec.5" = type { ptr, i32, i32 }
%"class.Gluco2::Heap2" = type { %"struct.Gluco2::Solver::JustOrderLt2", %"class.Gluco2::vec.8", %"class.Gluco2::vec" }
%"struct.Gluco2::Solver::JustOrderLt2" = type { ptr }
%"class.Gluco2::vec.8" = type { ptr, i32, i32 }
%"class.Gluco2::vec" = type { ptr, i32, i32 }

@.str = private unnamed_addr constant [56 x i8] c"c restarts              : %d (%d conflicts on average)\0A\00", align 1
@.str.1 = private unnamed_addr constant [46 x i8] c"c blocked restarts      : %d (multiple: %d) \0A\00", align 1
@.str.2 = private unnamed_addr constant [30 x i8] c"c last block at restart : %d\0A\00", align 1
@.str.3 = private unnamed_addr constant [33 x i8] c"c nb ReduceDB           : %-12d\0A\00", align 1
@.str.4 = private unnamed_addr constant [33 x i8] c"c nb removed Clauses    : %-12d\0A\00", align 1
@.str.5 = private unnamed_addr constant [33 x i8] c"c nb learnts DL2        : %-12d\0A\00", align 1
@.str.6 = private unnamed_addr constant [33 x i8] c"c nb learnts size 2     : %-12d\0A\00", align 1
@.str.7 = private unnamed_addr constant [33 x i8] c"c nb learnts size 1     : %-12d\0A\00", align 1
@.str.8 = private unnamed_addr constant [46 x i8] c"c conflicts             : %-12d  (%.0f /sec)\0A\00", align 1
@.str.9 = private unnamed_addr constant [64 x i8] c"c decisions             : %-12d  (%4.2f %% random) (%.0f /sec)\0A\00", align 1
@.str.10 = private unnamed_addr constant [46 x i8] c"c propagations          : %-12d  (%.0f /sec)\0A\00", align 1
@.str.11 = private unnamed_addr constant [53 x i8] c"c conflict literals     : %-12d  (%4.2f %% deleted)\0A\00", align 1
@.str.12 = private unnamed_addr constant [33 x i8] c"c nb reduced Clauses    : %-12d\0A\00", align 1
@.str.13 = private unnamed_addr constant [33 x i8] c"Memory used           : %.2f MB\0A\00", align 1

; Function Attrs: mustprogress nounwind uwtable
define void @_Z20glucose2_print_statsRN6Gluco210SimpSolverEl(ptr noundef nonnull align 8 dereferenceable(1684) %0, i64 noundef %1) #0 {
  %3 = alloca ptr, align 8
  %4 = alloca i64, align 8
  %5 = alloca double, align 8
  %6 = alloca double, align 8
  store ptr %0, ptr %3, align 8, !tbaa !3
  store i64 %1, ptr %4, align 8, !tbaa !96
  call void @llvm.lifetime.start.p0(i64 8, ptr %5) #15
  %7 = load i64, ptr %4, align 8, !tbaa !96
  %8 = trunc i64 %7 to i32
  %9 = uitofp i32 %8 to double
  %10 = fdiv double %9, 1.000000e+06
  store double %10, ptr %5, align 8, !tbaa !110
  call void @llvm.lifetime.start.p0(i64 8, ptr %6) #15
  %11 = call noundef double @_ZN6Gluco27memUsedEv()
  store double %11, ptr %6, align 8, !tbaa !110
  %12 = load ptr, ptr %3, align 8, !tbaa !3
  %13 = getelementptr inbounds nuw %"class.Gluco2::Solver", ptr %12, i32 0, i32 44
  %14 = load i64, ptr %13, align 8, !tbaa !111
  %15 = trunc i64 %14 to i32
  %16 = load ptr, ptr %3, align 8, !tbaa !3
  %17 = getelementptr inbounds nuw %"class.Gluco2::Solver", ptr %16, i32 0, i32 44
  %18 = load i64, ptr %17, align 8, !tbaa !111
  %19 = icmp sgt i64 %18, 0
  br i1 %19, label %20, label %29

20:                                               ; preds = %2
  %21 = load ptr, ptr %3, align 8, !tbaa !3
  %22 = getelementptr inbounds nuw %"class.Gluco2::Solver", ptr %21, i32 0, i32 48
  %23 = load i64, ptr %22, align 8, !tbaa !98
  %24 = load ptr, ptr %3, align 8, !tbaa !3
  %25 = getelementptr inbounds nuw %"class.Gluco2::Solver", ptr %24, i32 0, i32 44
  %26 = load i64, ptr %25, align 8, !tbaa !111
  %27 = sdiv i64 %23, %26
  %28 = trunc i64 %27 to i32
  br label %30

29:                                               ; preds = %2
  br label %30

30:                                               ; preds = %29, %20
  %31 = phi i32 [ %28, %20 ], [ 0, %29 ]
  %32 = call i32 (ptr, ...) @printf(ptr noundef @.str, i32 noundef %15, i32 noundef %31)
  %33 = load ptr, ptr %3, align 8, !tbaa !3
  %34 = getelementptr inbounds nuw %"class.Gluco2::Solver", ptr %33, i32 0, i32 50
  %35 = load i64, ptr %34, align 8, !tbaa !112
  %36 = trunc i64 %35 to i32
  %37 = load ptr, ptr %3, align 8, !tbaa !3
  %38 = getelementptr inbounds nuw %"class.Gluco2::Solver", ptr %37, i32 0, i32 51
  %39 = load i64, ptr %38, align 8, !tbaa !113
  %40 = trunc i64 %39 to i32
  %41 = call i32 (ptr, ...) @printf(ptr noundef @.str.1, i32 noundef %36, i32 noundef %40)
  %42 = load ptr, ptr %3, align 8, !tbaa !3
  %43 = getelementptr inbounds nuw %"class.Gluco2::Solver", ptr %42, i32 0, i32 52
  %44 = load i64, ptr %43, align 8, !tbaa !114
  %45 = trunc i64 %44 to i32
  %46 = call i32 (ptr, ...) @printf(ptr noundef @.str.2, i32 noundef %45)
  %47 = load ptr, ptr %3, align 8, !tbaa !3
  %48 = getelementptr inbounds nuw %"class.Gluco2::Solver", ptr %47, i32 0, i32 42
  %49 = load i64, ptr %48, align 8, !tbaa !115
  %50 = trunc i64 %49 to i32
  %51 = call i32 (ptr, ...) @printf(ptr noundef @.str.3, i32 noundef %50)
  %52 = load ptr, ptr %3, align 8, !tbaa !3
  %53 = getelementptr inbounds nuw %"class.Gluco2::Solver", ptr %52, i32 0, i32 37
  %54 = load i64, ptr %53, align 8, !tbaa !116
  %55 = trunc i64 %54 to i32
  %56 = call i32 (ptr, ...) @printf(ptr noundef @.str.4, i32 noundef %55)
  %57 = load ptr, ptr %3, align 8, !tbaa !3
  %58 = getelementptr inbounds nuw %"class.Gluco2::Solver", ptr %57, i32 0, i32 39
  %59 = load i64, ptr %58, align 8, !tbaa !117
  %60 = trunc i64 %59 to i32
  %61 = call i32 (ptr, ...) @printf(ptr noundef @.str.5, i32 noundef %60)
  %62 = load ptr, ptr %3, align 8, !tbaa !3
  %63 = getelementptr inbounds nuw %"class.Gluco2::Solver", ptr %62, i32 0, i32 40
  %64 = load i64, ptr %63, align 8, !tbaa !118
  %65 = trunc i64 %64 to i32
  %66 = call i32 (ptr, ...) @printf(ptr noundef @.str.6, i32 noundef %65)
  %67 = load ptr, ptr %3, align 8, !tbaa !3
  %68 = getelementptr inbounds nuw %"class.Gluco2::Solver", ptr %67, i32 0, i32 41
  %69 = load i64, ptr %68, align 8, !tbaa !119
  %70 = trunc i64 %69 to i32
  %71 = call i32 (ptr, ...) @printf(ptr noundef @.str.7, i32 noundef %70)
  %72 = load ptr, ptr %3, align 8, !tbaa !3
  %73 = getelementptr inbounds nuw %"class.Gluco2::Solver", ptr %72, i32 0, i32 48
  %74 = load i64, ptr %73, align 8, !tbaa !98
  %75 = trunc i64 %74 to i32
  %76 = load ptr, ptr %3, align 8, !tbaa !3
  %77 = getelementptr inbounds nuw %"class.Gluco2::Solver", ptr %76, i32 0, i32 48
  %78 = load i64, ptr %77, align 8, !tbaa !98
  %79 = sitofp i64 %78 to double
  %80 = load double, ptr %5, align 8, !tbaa !110
  %81 = fdiv double %79, %80
  %82 = call i32 (ptr, ...) @printf(ptr noundef @.str.8, i32 noundef %75, double noundef %81)
  %83 = load ptr, ptr %3, align 8, !tbaa !3
  %84 = getelementptr inbounds nuw %"class.Gluco2::Solver", ptr %83, i32 0, i32 45
  %85 = load i64, ptr %84, align 8, !tbaa !120
  %86 = trunc i64 %85 to i32
  %87 = load ptr, ptr %3, align 8, !tbaa !3
  %88 = getelementptr inbounds nuw %"class.Gluco2::Solver", ptr %87, i32 0, i32 46
  %89 = load i64, ptr %88, align 8, !tbaa !121
  %90 = sitofp i64 %89 to float
  %91 = fmul float %90, 1.000000e+02
  %92 = load ptr, ptr %3, align 8, !tbaa !3
  %93 = getelementptr inbounds nuw %"class.Gluco2::Solver", ptr %92, i32 0, i32 45
  %94 = load i64, ptr %93, align 8, !tbaa !120
  %95 = sitofp i64 %94 to float
  %96 = fdiv float %91, %95
  %97 = fpext float %96 to double
  %98 = load ptr, ptr %3, align 8, !tbaa !3
  %99 = getelementptr inbounds nuw %"class.Gluco2::Solver", ptr %98, i32 0, i32 45
  %100 = load i64, ptr %99, align 8, !tbaa !120
  %101 = sitofp i64 %100 to double
  %102 = load double, ptr %5, align 8, !tbaa !110
  %103 = fdiv double %101, %102
  %104 = call i32 (ptr, ...) @printf(ptr noundef @.str.9, i32 noundef %86, double noundef %97, double noundef %103)
  %105 = load ptr, ptr %3, align 8, !tbaa !3
  %106 = getelementptr inbounds nuw %"class.Gluco2::Solver", ptr %105, i32 0, i32 47
  %107 = load i64, ptr %106, align 8, !tbaa !122
  %108 = trunc i64 %107 to i32
  %109 = load ptr, ptr %3, align 8, !tbaa !3
  %110 = getelementptr inbounds nuw %"class.Gluco2::Solver", ptr %109, i32 0, i32 47
  %111 = load i64, ptr %110, align 8, !tbaa !122
  %112 = sitofp i64 %111 to double
  %113 = load double, ptr %5, align 8, !tbaa !110
  %114 = fdiv double %112, %113
  %115 = call i32 (ptr, ...) @printf(ptr noundef @.str.10, i32 noundef %108, double noundef %114)
  %116 = load ptr, ptr %3, align 8, !tbaa !3
  %117 = getelementptr inbounds nuw %"class.Gluco2::Solver", ptr %116, i32 0, i32 57
  %118 = load i64, ptr %117, align 8, !tbaa !123
  %119 = trunc i64 %118 to i32
  %120 = load ptr, ptr %3, align 8, !tbaa !3
  %121 = getelementptr inbounds nuw %"class.Gluco2::Solver", ptr %120, i32 0, i32 56
  %122 = load i64, ptr %121, align 8, !tbaa !124
  %123 = load ptr, ptr %3, align 8, !tbaa !3
  %124 = getelementptr inbounds nuw %"class.Gluco2::Solver", ptr %123, i32 0, i32 57
  %125 = load i64, ptr %124, align 8, !tbaa !123
  %126 = sub nsw i64 %122, %125
  %127 = mul nsw i64 %126, 100
  %128 = sitofp i64 %127 to double
  %129 = load ptr, ptr %3, align 8, !tbaa !3
  %130 = getelementptr inbounds nuw %"class.Gluco2::Solver", ptr %129, i32 0, i32 56
  %131 = load i64, ptr %130, align 8, !tbaa !124
  %132 = sitofp i64 %131 to double
  %133 = fdiv double %128, %132
  %134 = call i32 (ptr, ...) @printf(ptr noundef @.str.11, i32 noundef %119, double noundef %133)
  %135 = load ptr, ptr %3, align 8, !tbaa !3
  %136 = getelementptr inbounds nuw %"class.Gluco2::Solver", ptr %135, i32 0, i32 38
  %137 = load i64, ptr %136, align 8, !tbaa !125
  %138 = trunc i64 %137 to i32
  %139 = call i32 (ptr, ...) @printf(ptr noundef @.str.12, i32 noundef %138)
  %140 = load double, ptr %6, align 8, !tbaa !110
  %141 = fcmp une double %140, 0.000000e+00
  br i1 %141, label %142, label %145

142:                                              ; preds = %30
  %143 = load double, ptr %6, align 8, !tbaa !110
  %144 = call i32 (ptr, ...) @printf(ptr noundef @.str.13, double noundef %143)
  br label %145

145:                                              ; preds = %142, %30
  call void @llvm.lifetime.end.p0(i64 8, ptr %6) #15
  call void @llvm.lifetime.end.p0(i64 8, ptr %5) #15
  ret void
}