; Function Attrs: mustprogress nounwind uwtable
define void @_Z20glucose2_print_statsRN6Gluco210SimpSolverEl(ptr noundef nonnull readonly align 8 captures(none) dereferenceable(1684) %0, i64 noundef %1) local_unnamed_addr #0 {
  %3 = trunc i64 %1 to i32
  %4 = uitofp i32 %3 to double
  %5 = fdiv double %4, 1.000000e+06
  %6 = tail call noundef double @_ZN6Gluco27memUsedEv() #30
  %7 = getelementptr inbounds nuw i8, ptr %0, i64 328
  %8 = load i64, ptr %7, align 8, !tbaa !97
  %9 = trunc i64 %8 to i32
  %10 = icmp sgt i64 %8, 0
  br i1 %10, label %11, label %16

11:                                               ; preds = %2
  %12 = getelementptr inbounds nuw i8, ptr %0, i64 360
  %13 = load i64, ptr %12, align 8, !tbaa !88
  %14 = sdiv i64 %13, %8
  %15 = trunc i64 %14 to i32
  br label %16

16:                                               ; preds = %2, %11
  %17 = phi i32 [ %15, %11 ], [ 0, %2 ]
  %18 = tail call i32 (ptr, ...) @printf(ptr noundef nonnull dereferenceable(1) @.str, i32 noundef %9, i32 noundef %17)
  %19 = getelementptr inbounds nuw i8, ptr %0, i64 376
  %20 = load i64, ptr %19, align 8, !tbaa !98
  %21 = trunc i64 %20 to i32
  %22 = getelementptr inbounds nuw i8, ptr %0, i64 384
  %23 = load i64, ptr %22, align 8, !tbaa !99
  %24 = trunc i64 %23 to i32
  %25 = tail call i32 (ptr, ...) @printf(ptr noundef nonnull dereferenceable(1) @.str.1, i32 noundef %21, i32 noundef %24)
  %26 = getelementptr inbounds nuw i8, ptr %0, i64 392
  %27 = load i64, ptr %26, align 8, !tbaa !100
  %28 = trunc i64 %27 to i32
  %29 = tail call i32 (ptr, ...) @printf(ptr noundef nonnull dereferenceable(1) @.str.2, i32 noundef %28)
  %30 = getelementptr inbounds nuw i8, ptr %0, i64 312
  %31 = load i64, ptr %30, align 8, !tbaa !101
  %32 = trunc i64 %31 to i32
  %33 = tail call i32 (ptr, ...) @printf(ptr noundef nonnull dereferenceable(1) @.str.3, i32 noundef %32)
  %34 = getelementptr inbounds nuw i8, ptr %0, i64 272
  %35 = load i64, ptr %34, align 8, !tbaa !102
  %36 = trunc i64 %35 to i32
  %37 = tail call i32 (ptr, ...) @printf(ptr noundef nonnull dereferenceable(1) @.str.4, i32 noundef %36)
  %38 = getelementptr inbounds nuw i8, ptr %0, i64 288
  %39 = load i64, ptr %38, align 8, !tbaa !103
  %40 = trunc i64 %39 to i32
  %41 = tail call i32 (ptr, ...) @printf(ptr noundef nonnull dereferenceable(1) @.str.5, i32 noundef %40)
  %42 = getelementptr inbounds nuw i8, ptr %0, i64 296
  %43 = load i64, ptr %42, align 8, !tbaa !104
  %44 = trunc i64 %43 to i32
  %45 = tail call i32 (ptr, ...) @printf(ptr noundef nonnull dereferenceable(1) @.str.6, i32 noundef %44)
  %46 = getelementptr inbounds nuw i8, ptr %0, i64 304
  %47 = load i64, ptr %46, align 8, !tbaa !105
  %48 = trunc i64 %47 to i32
  %49 = tail call i32 (ptr, ...) @printf(ptr noundef nonnull dereferenceable(1) @.str.7, i32 noundef %48)
  %50 = getelementptr inbounds nuw i8, ptr %0, i64 360
  %51 = load i64, ptr %50, align 8, !tbaa !88
  %52 = trunc i64 %51 to i32
  %53 = sitofp i64 %51 to double
  %54 = fdiv double %53, %5
  %55 = tail call i32 (ptr, ...) @printf(ptr noundef nonnull dereferenceable(1) @.str.8, i32 noundef %52, double noundef %54)
  %56 = getelementptr inbounds nuw i8, ptr %0, i64 336
  %57 = load i64, ptr %56, align 8, !tbaa !106
  %58 = trunc i64 %57 to i32
  %59 = getelementptr inbounds nuw i8, ptr %0, i64 344
  %60 = load i64, ptr %59, align 8, !tbaa !107
  %61 = sitofp i64 %60 to float
  %62 = fmul float %61, 1.000000e+02
  %63 = sitofp i64 %57 to float
  %64 = fdiv float %62, %63
  %65 = fpext float %64 to double
  %66 = sitofp i64 %57 to double
  %67 = fdiv double %66, %5
  %68 = tail call i32 (ptr, ...) @printf(ptr noundef nonnull dereferenceable(1) @.str.9, i32 noundef %58, double noundef %65, double noundef %67)
  %69 = getelementptr inbounds nuw i8, ptr %0, i64 352
  %70 = load i64, ptr %69, align 8, !tbaa !108
  %71 = trunc i64 %70 to i32
  %72 = sitofp i64 %70 to double
  %73 = fdiv double %72, %5
  %74 = tail call i32 (ptr, ...) @printf(ptr noundef nonnull dereferenceable(1) @.str.10, i32 noundef %71, double noundef %73)
  %75 = getelementptr inbounds nuw i8, ptr %0, i64 432
  %76 = load i64, ptr %75, align 8, !tbaa !109
  %77 = trunc i64 %76 to i32
  %78 = getelementptr inbounds nuw i8, ptr %0, i64 424
  %79 = load i64, ptr %78, align 8, !tbaa !110
  %80 = sub nsw i64 %79, %76
  %81 = mul nsw i64 %80, 100
  %82 = sitofp i64 %81 to double
  %83 = sitofp i64 %79 to double
  %84 = fdiv double %82, %83
  %85 = tail call i32 (ptr, ...) @printf(ptr noundef nonnull dereferenceable(1) @.str.11, i32 noundef %77, double noundef %84)
  %86 = getelementptr inbounds nuw i8, ptr %0, i64 280
  %87 = load i64, ptr %86, align 8, !tbaa !111
  %88 = trunc i64 %87 to i32
  %89 = tail call i32 (ptr, ...) @printf(ptr noundef nonnull dereferenceable(1) @.str.12, i32 noundef %88)
  %90 = fcmp une double %6, 0.000000e+00
  br i1 %90, label %91, label %93

91:                                               ; preds = %16
  %92 = tail call i32 (ptr, ...) @printf(ptr noundef nonnull dereferenceable(1) @.str.13, double noundef %6)
  br label %93

93:                                               ; preds = %91, %16
  ret void
}